; Function Attrs: nounwind uwtable
define dso_local noundef ptr @makeVar(i32 noundef %0, i16 noundef signext %1, i32 noundef %2, i32 noundef %3, i32 noundef %4, i32 noundef %5) local_unnamed_addr #0 {
  %7 = tail call noundef ptr @palloc0(i64 noundef 56) #7
  store i32 6, ptr %7, align 4
  %8 = getelementptr inbounds nuw i8, ptr %7, i64 4
  store i32 %0, ptr %8, align 4
  %9 = getelementptr inbounds nuw i8, ptr %7, i64 8
  store i16 %1, ptr %9, align 8
  %10 = getelementptr inbounds nuw i8, ptr %7, i64 12
  store i32 %2, ptr %10, align 4
  %11 = getelementptr inbounds nuw i8, ptr %7, i64 16
  store i32 %3, ptr %11, align 8
  %12 = getelementptr inbounds nuw i8, ptr %7, i64 20
  store i32 %4, ptr %12, align 4
  %13 = getelementptr inbounds nuw i8, ptr %7, i64 32
  store i32 %5, ptr %13, align 8
  %14 = getelementptr inbounds nuw i8, ptr %7, i64 36
  store i32 0, ptr %14, align 4
  %15 = getelementptr inbounds nuw i8, ptr %7, i64 24
  store ptr null, ptr %15, align 8
  %16 = getelementptr inbounds nuw i8, ptr %7, i64 40
  store i32 %0, ptr %16, align 8
  %17 = getelementptr inbounds nuw i8, ptr %7, i64 44
  store i16 %1, ptr %17, align 4
  %18 = getelementptr inbounds nuw i8, ptr %7, i64 48
  store i32 -1, ptr %18, align 8
  ret ptr %7
}